target datalayout = "e-m:e-p270:32:32-p271:32:32-p272:64:64-i64:64-i128:128-f80:128-n8:16:32:64-S128"
target triple = "x86_64-pc-linux-gnu"

%struct.expert_field = type { i32, i32 }
%struct._asn1_ctx_t = type { i32, i32, i8, ptr, ptr, ptr, ptr, ptr, %struct.anon, %struct.anon.2, %struct.anon.3, ptr }
%struct.anon = type { i32, i8, i8, i8, ptr, ptr, i32, i32, ptr, ptr, ptr, %union.anon }
%union.anon = type { %struct.anon.0 }
%struct.anon.0 = type { ptr }
%struct.anon.2 = type { ptr, ptr, ptr }
%struct.anon.3 = type { i32, i8, ptr, i32, i32, ptr, ptr, ptr, %union.anon.4 }
%union.anon.4 = type { %struct.anon.5 }
%struct.anon.5 = type { ptr }
%struct.mms_actx_private_data_t = type { i32, i32, i32, i32, i32, i16, ptr, i32, i32, i32, ptr, ptr, i32 }
%struct._packet_info = type { ptr, ptr, i32, i32, %struct.nstime_t, %struct.nstime_t, %struct.nstime_t, i8, ptr, ptr, ptr, ptr, %struct._address, %struct._address, %struct._address, %struct._address, %struct._address, %struct._address, i32, ptr, i8, [3 x i8], %struct.anon.7, i32, i32, i32, i32, ptr, i8, ptr, ptr, i16, i16, i32, i32, i16, i32, i32, ptr, ptr, ptr, i8, i8, i16, i16, i16, i32, i16, i16, ptr, ptr, ptr, ptr, ptr, i32, i32 }
%struct.nstime_t = type { i64, i32 }
%struct._address = type { i32, i32, ptr, ptr }
%struct.anon.7 = type { i8, [3 x i8] }
%struct._mms_transaction_t = type { i32, i32, %struct.nstime_t, i32, i32 }

@hf_mms_iec61850_T = internal global i32 0, align 4
@ei_mms_mal_utctime_encoding = internal global %struct.expert_field zeroinitializer, align 4
@.str.1544 = private unnamed_addr constant [5 x i8] c"????\00", align 1
@dissect_mms_UtcTime.TimeQuality_bits = internal constant [5 x ptr] [ptr @hf_mms_iec61850_timequality80, ptr @hf_mms_iec61850_timequality40, ptr @hf_mms_iec61850_timequality20, ptr @hf_mms_iec61850_timequality1F, ptr null], align 16
@.str.1545 = private unnamed_addr constant [71 x i8] c"BER Error: malformed IEC61850 UTCTime encoding, length must be 8 bytes\00", align 1

; Function Attrs: null_pointer_is_valid sspstrong uwtable
define internal i32 @dissect_mms_UtcTime(i1 noundef zeroext %0, ptr noundef %1, i32 noundef %2, ptr noundef %3, ptr noundef %4, i32 noundef %5) #0 {
  %7 = alloca i32, align 4
  %8 = alloca i8, align 1
  %9 = alloca ptr, align 8
  %10 = alloca i32, align 4
  %11 = alloca ptr, align 8
  %12 = alloca ptr, align 8
  %13 = alloca i32, align 4
  %14 = alloca i32, align 4
  %15 = alloca i32, align 4
  %16 = alloca i32, align 4
  %17 = alloca i32, align 4
  %18 = alloca %struct.nstime_t, align 8
  %19 = alloca ptr, align 8
  %20 = alloca i32, align 4
  %21 = alloca ptr, align 8
  %22 = zext i1 %0 to i8
  store i8 %22, ptr %8, align 1
  store ptr %1, ptr %9, align 8
  store i32 %2, ptr %10, align 4
  store ptr %3, ptr %11, align 8
  store ptr %4, ptr %12, align 8
  store i32 %5, ptr %13, align 4
  call void @llvm.lifetime.start.p0(i64 4, ptr %14) #8
  call void @llvm.lifetime.start.p0(i64 4, ptr %15) #8
  call void @llvm.lifetime.start.p0(i64 4, ptr %16) #8
  call void @llvm.lifetime.start.p0(i64 4, ptr %17) #8
  call void @llvm.lifetime.start.p0(i64 16, ptr %18) #8
  call void @llvm.lifetime.start.p0(i64 8, ptr %19) #8
  %23 = load ptr, ptr %9, align 8
  %24 = load i32, ptr %10, align 4
  %25 = call i32 @tvb_reported_length_remaining(ptr noundef %23, i32 noundef %24)
  store i32 %25, ptr %14, align 4
  %26 = load i32, ptr %14, align 4
  %27 = icmp ne i32 %26, 8
  br i1 %27, label %28, label %48

28:                                               ; preds = %6
  %29 = load ptr, ptr %12, align 8
  %30 = load ptr, ptr %11, align 8
  %31 = getelementptr inbounds nuw %struct._asn1_ctx_t, ptr %30, i32 0, i32 3
  %32 = load ptr, ptr %31, align 8
  %33 = load ptr, ptr %9, align 8
  %34 = load i32, ptr %10, align 4
  %35 = load i32, ptr %14, align 4
  %36 = call ptr (ptr, ptr, ptr, ptr, i32, i32, ptr, ...) @proto_tree_add_expert_format(ptr noundef %29, ptr noundef %32, ptr noundef @ei_mms_mal_utctime_encoding, ptr noundef %33, i32 noundef %34, i32 noundef %35, ptr noundef @.str.1545)
  %37 = load i32, ptr %13, align 4
  %38 = icmp sgt i32 %37, 0
  br i1 %38, label %39, label %46

39:                                               ; preds = %28
  %40 = load ptr, ptr %12, align 8
  %41 = load i32, ptr %13, align 4
  %42 = load ptr, ptr %9, align 8
  %43 = load i32, ptr %10, align 4
  %44 = load i32, ptr %14, align 4
  %45 = call ptr @proto_tree_add_string(ptr noundef %40, i32 noundef %41, ptr noundef %42, i32 noundef %43, i32 noundef %44, ptr noundef @.str.1544)
  br label %46

46:                                               ; preds = %39, %28
  %47 = load i32, ptr %10, align 4
  store i32 %47, ptr %7, align 4
  store i32 1, ptr %20, align 4
  br label %116

48:                                               ; preds = %6
  %49 = load ptr, ptr %9, align 8
  %50 = load i32, ptr %10, align 4
  %51 = call i32 @tvb_get_ntohl(ptr noundef %49, i32 noundef %50)
  store i32 %51, ptr %15, align 4
  %52 = load ptr, ptr %9, align 8
  %53 = load i32, ptr %10, align 4
  %54 = add i32 %53, 4
  %55 = call i32 @tvb_get_ntoh24(ptr noundef %52, i32 noundef %54)
  %56 = mul i32 %55, 256
  store i32 %56, ptr %16, align 4
  %57 = load i32, ptr %16, align 4
  %58 = zext i32 %57 to i64
  %59 = mul i64 %58, 1000000000
  %60 = udiv i64 %59, 4294967296
  %61 = trunc i64 %60 to i32
  store i32 %61, ptr %17, align 4
  %62 = load i32, ptr %15, align 4
  %63 = zext i32 %62 to i64
  %64 = getelementptr inbounds nuw %struct.nstime_t, ptr %18, i32 0, i32 0
  store i64 %63, ptr %64, align 8
  %65 = load i32, ptr %17, align 4
  %66 = getelementptr inbounds nuw %struct.nstime_t, ptr %18, i32 0, i32 1
  store i32 %65, ptr %66, align 8
  %67 = load ptr, ptr %11, align 8
  %68 = getelementptr inbounds nuw %struct._asn1_ctx_t, ptr %67, i32 0, i32 3
  %69 = load ptr, ptr %68, align 8
  %70 = getelementptr inbounds nuw %struct._packet_info, ptr %69, i32 0, i32 51
  %71 = load ptr, ptr %70, align 8
  %72 = call ptr @abs_time_to_str_ex(ptr noundef %71, ptr noundef %18, i32 noundef 19, i32 noundef 1)
  store ptr %72, ptr %19, align 8
  %73 = load i32, ptr %13, align 4
  %74 = icmp sgt i32 %73, 0
  br i1 %74, label %75, label %114

75:                                               ; preds = %48
  call void @llvm.lifetime.start.p0(i64 8, ptr %21) #8
  %76 = load ptr, ptr %11, align 8
  %77 = getelementptr inbounds nuw %struct._asn1_ctx_t, ptr %76, i32 0, i32 7
  %78 = load ptr, ptr %77, align 8
  store ptr %78, ptr %21, align 8
  %79 = load ptr, ptr %21, align 8
  %80 = icmp ne ptr %79, null
  br i1 %80, label %81, label %102

81:                                               ; preds = %75
  %82 = load ptr, ptr %21, align 8
  %83 = getelementptr inbounds nuw %struct.mms_actx_private_data_t, ptr %82, i32 0, i32 10
  %84 = load ptr, ptr %83, align 8
  %85 = icmp ne ptr %84, null
  br i1 %85, label %86, label %102

86:                                               ; preds = %81
  %87 = load ptr, ptr %21, align 8
  %88 = getelementptr inbounds nuw %struct.mms_actx_private_data_t, ptr %87, i32 0, i32 10
  %89 = load ptr, ptr %88, align 8
  %90 = getelementptr inbounds nuw %struct._mms_transaction_t, ptr %89, i32 0, i32 4
  %91 = load i32, ptr %90, align 4
  %92 = icmp eq i32 %91, 5
  br i1 %92, label %93, label %101

93:                                               ; preds = %86
  %94 = load ptr, ptr %21, align 8
  %95 = getelementptr inbounds nuw %struct.mms_actx_private_data_t, ptr %94, i32 0, i32 4
  %96 = load i32, ptr %95, align 8
  %97 = icmp eq i32 %96, 8
  br i1 %97, label %98, label %100

98:                                               ; preds = %93
  %99 = load i32, ptr @hf_mms_iec61850_T, align 4
  store i32 %99, ptr %13, align 4
  br label %100

100:                                              ; preds = %98, %93
  br label %101

101:                                              ; preds = %100, %86
  br label %102

102:                                              ; preds = %101, %81, %75
  %103 = load ptr, ptr %12, align 8
  %104 = load i32, ptr %13, align 4
  %105 = load ptr, ptr %9, align 8
  %106 = load i32, ptr %10, align 4
  %107 = load i32, ptr %14, align 4
  %108 = load ptr, ptr %19, align 8
  %109 = call ptr @proto_tree_add_string(ptr noundef %103, i32 noundef %104, ptr noundef %105, i32 noundef %106, i32 noundef %107, ptr noundef %108)
  %110 = load ptr, ptr %12, align 8
  %111 = load ptr, ptr %9, align 8
  %112 = load i32, ptr %10, align 4
  %113 = add i32 %112, 7
  call void @proto_tree_add_bitmask_list(ptr noundef %110, ptr noundef %111, i32 noundef %113, i32 noundef 1, ptr noundef @dissect_mms_UtcTime.TimeQuality_bits, i32 noundef 0)
  call void @llvm.lifetime.end.p0(i64 8, ptr %21) #8
  br label %114

114:                                              ; preds = %102, %48
  %115 = load i32, ptr %10, align 4
  store i32 %115, ptr %7, align 4
  store i32 1, ptr %20, align 4
  br label %116

116:                                              ; preds = %114, %46
  call void @llvm.lifetime.end.p0(i64 8, ptr %19) #8
  call void @llvm.lifetime.end.p0(i64 16, ptr %18) #8
  call void @llvm.lifetime.end.p0(i64 4, ptr %17) #8
  call void @llvm.lifetime.end.p0(i64 4, ptr %16) #8
  call void @llvm.lifetime.end.p0(i64 4, ptr %15) #8
  call void @llvm.lifetime.end.p0(i64 4, ptr %14) #8
  %117 = load i32, ptr %7, align 4
  ret i32 %117
}