; Function Attrs: null_pointer_is_valid sspstrong uwtable
define internal noundef i32 @dissect_mms_UtcTime(i1 zeroext %0, ptr noundef %1, i32 noundef returned %2, ptr noundef readonly captures(none) %3, ptr noundef %4, i32 noundef %5) #0 {
  %7 = alloca %struct.nstime_t, align 8
  call void @llvm.lifetime.start.p0(i64 16, ptr nonnull %7) #8
  %8 = tail call i32 @tvb_reported_length_remaining(ptr noundef %1, i32 noundef %2)
  %.not = icmp eq i32 %8, 8
  br i1 %.not, label %16, label %9

9:                                                ; preds = %6
  %10 = getelementptr inbounds nuw i8, ptr %3, i64 16
  %11 = load ptr, ptr %10, align 8
  %12 = tail call ptr (ptr, ptr, ptr, ptr, i32, i32, ptr, ...) @proto_tree_add_expert_format(ptr noundef %4, ptr noundef %11, ptr noundef nonnull @ei_mms_mal_utctime_encoding, ptr noundef %1, i32 noundef %2, i32 noundef %8, ptr noundef nonnull @.str.1545)
  %13 = icmp sgt i32 %5, 0
  br i1 %13, label %14, label %51

14:                                               ; preds = %9
  %15 = tail call ptr @proto_tree_add_string(ptr noundef %4, i32 noundef %5, ptr noundef %1, i32 noundef %2, i32 noundef %8, ptr noundef nonnull @.str.1544)
  br label %51

16:                                               ; preds = %6
  %17 = tail call i32 @tvb_get_ntohl(ptr noundef %1, i32 noundef %2)
  %18 = add i32 %2, 4
  %19 = tail call i32 @tvb_get_ntoh24(ptr noundef %1, i32 noundef %18)
  %20 = shl i32 %19, 8
  %21 = zext i32 %20 to i64
  %22 = mul nuw nsw i64 %21, 1000000000
  %23 = lshr i64 %22, 32
  %24 = trunc nuw nsw i64 %23 to i32
  %25 = zext i32 %17 to i64
  store i64 %25, ptr %7, align 8
  %26 = getelementptr inbounds nuw i8, ptr %7, i64 8
  store i32 %24, ptr %26, align 8
  %27 = getelementptr inbounds nuw i8, ptr %3, i64 16
  %28 = load ptr, ptr %27, align 8
  %29 = getelementptr inbounds nuw i8, ptr %28, i64 408
  %30 = load ptr, ptr %29, align 8
  %31 = call ptr @abs_time_to_str_ex(ptr noundef %30, ptr noundef nonnull %7, i32 noundef 19, i32 noundef 1)
  %32 = icmp sgt i32 %5, 0
  br i1 %32, label %33, label %51

33:                                               ; preds = %16
  %34 = getelementptr inbounds nuw i8, ptr %3, i64 48
  %35 = load ptr, ptr %34, align 8
  %.not44 = icmp eq ptr %35, null
  br i1 %.not44, label %48, label %36

36:                                               ; preds = %33
  %37 = getelementptr inbounds nuw i8, ptr %35, i64 48
  %38 = load ptr, ptr %37, align 8
  %.not45 = icmp eq ptr %38, null
  br i1 %.not45, label %48, label %39

39:                                               ; preds = %36
  %40 = getelementptr inbounds nuw i8, ptr %38, i64 28
  %41 = load i32, ptr %40, align 4
  %42 = icmp eq i32 %41, 5
  br i1 %42, label %43, label %48

43:                                               ; preds = %39
  %44 = getelementptr inbounds nuw i8, ptr %35, i64 16
  %45 = load i32, ptr %44, align 8
  %46 = icmp eq i32 %45, 8
  %47 = load i32, ptr @hf_mms_iec61850_T, align 4
  %spec.select = select i1 %46, i32 %47, i32 %5
  br label %48

48:                                               ; preds = %43, %39, %36, %33
  %.039 = phi i32 [ %5, %39 ], [ %5, %36 ], [ %5, %33 ], [ %spec.select, %43 ]
  %49 = call ptr @proto_tree_add_string(ptr noundef %4, i32 noundef %.039, ptr noundef %1, i32 noundef %2, i32 noundef 8, ptr noundef %31)
  %50 = add i32 %2, 7
  call void @proto_tree_add_bitmask_list(ptr noundef %4, ptr noundef %1, i32 noundef %50, i32 noundef 1, ptr noundef nonnull @dissect_mms_UtcTime.TimeQuality_bits, i32 noundef 0)
  br label %51

51:                                               ; preds = %16, %48, %9, %14
  call void @llvm.lifetime.end.p0(i64 16, ptr nonnull %7) #8
  ret i32 %2
}